; Function Attrs: mustprogress uwtable
define noundef nonnull align 8 dereferenceable(8) ptr @_ZN19OpenColorIO_v2_5devlsERSoRKNS_13LookTransformE(ptr noundef nonnull returned align 8 dereferenceable(8) %0, ptr noundef nonnull align 8 dereferenceable(16) %1) local_unnamed_addr #0 {
  %3 = tail call noundef nonnull align 8 dereferenceable(8) ptr @_ZSt16__ostream_insertIcSt11char_traitsIcEERSt13basic_ostreamIT_T0_ES6_PKS3_l(ptr noundef nonnull align 8 dereferenceable(8) %0, ptr noundef nonnull @.str.4, i64 noundef 14)
  %4 = tail call noundef nonnull align 8 dereferenceable(8) ptr @_ZSt16__ostream_insertIcSt11char_traitsIcEERSt13basic_ostreamIT_T0_ES6_PKS3_l(ptr noundef nonnull align 8 dereferenceable(8) %0, ptr noundef nonnull @.str.5, i64 noundef 11)
  %5 = load ptr, ptr %1, align 8, !tbaa !12
  %6 = getelementptr inbounds nuw i8, ptr %5, i64 8
  %7 = load ptr, ptr %6, align 8
  %8 = tail call noundef i32 %7(ptr noundef nonnull align 8 dereferenceable(16) %1) #23
  %9 = tail call noundef ptr @_ZN19OpenColorIO_v2_5dev26TransformDirectionToStringENS_18TransformDirectionE(i32 noundef %8)
  %.not.i = icmp eq ptr %9, null
  br i1 %.not.i, label %10, label %18

10:                                               ; preds = %2
  %11 = load ptr, ptr %0, align 8, !tbaa !12
  %12 = getelementptr i8, ptr %11, i64 -24
  %13 = load i64, ptr %12, align 8
  %14 = getelementptr inbounds i8, ptr %0, i64 %13
  %15 = getelementptr inbounds nuw i8, ptr %14, i64 32
  %16 = load i32, ptr %15, align 8, !tbaa !74
  %17 = or i32 %16, 1
  tail call void @_ZNSt9basic_iosIcSt11char_traitsIcEE5clearESt12_Ios_Iostate(ptr noundef nonnull align 8 dereferenceable(264) %14, i32 noundef %17)
  br label %_ZStlsISt11char_traitsIcEERSt13basic_ostreamIcT_ES5_PKc.exit

18:                                               ; preds = %2
  %19 = tail call noundef i64 @strlen(ptr noundef nonnull dereferenceable(1) %9) #23
  %20 = tail call noundef nonnull align 8 dereferenceable(8) ptr @_ZSt16__ostream_insertIcSt11char_traitsIcEERSt13basic_ostreamIT_T0_ES6_PKS3_l(ptr noundef nonnull align 8 dereferenceable(8) %0, ptr noundef nonnull %9, i64 noundef %19)
  br label %_ZStlsISt11char_traitsIcEERSt13basic_ostreamIcT_ES5_PKc.exit

_ZStlsISt11char_traitsIcEERSt13basic_ostreamIcT_ES5_PKc.exit: ; preds = %10, %18
  %21 = tail call noundef nonnull align 8 dereferenceable(8) ptr @_ZSt16__ostream_insertIcSt11char_traitsIcEERSt13basic_ostreamIT_T0_ES6_PKS3_l(ptr noundef nonnull align 8 dereferenceable(8) %0, ptr noundef nonnull @.str.6, i64 noundef 6)
  %22 = getelementptr inbounds nuw i8, ptr %1, i64 8
  %23 = load ptr, ptr %22, align 8, !tbaa !34
  %24 = getelementptr inbounds nuw i8, ptr %23, i64 8
  %25 = load ptr, ptr %24, align 8, !tbaa !45
  %.not.i13 = icmp eq ptr %25, null
  br i1 %.not.i13, label %26, label %34

26:                                               ; preds = %_ZStlsISt11char_traitsIcEERSt13basic_ostreamIcT_ES5_PKc.exit
  %27 = load ptr, ptr %0, align 8, !tbaa !12
  %28 = getelementptr i8, ptr %27, i64 -24
  %29 = load i64, ptr %28, align 8
  %30 = getelementptr inbounds i8, ptr %0, i64 %29
  %31 = getelementptr inbounds nuw i8, ptr %30, i64 32
  %32 = load i32, ptr %31, align 8, !tbaa !74
  %33 = or i32 %32, 1
  tail call void @_ZNSt9basic_iosIcSt11char_traitsIcEE5clearESt12_Ios_Iostate(ptr noundef nonnull align 8 dereferenceable(264) %30, i32 noundef %33)
  br label %_ZStlsISt11char_traitsIcEERSt13basic_ostreamIcT_ES5_PKc.exit14

34:                                               ; preds = %_ZStlsISt11char_traitsIcEERSt13basic_ostreamIcT_ES5_PKc.exit
  %35 = tail call noundef i64 @strlen(ptr noundef nonnull dereferenceable(1) %25) #23
  %36 = tail call noundef nonnull align 8 dereferenceable(8) ptr @_ZSt16__ostream_insertIcSt11char_traitsIcEERSt13basic_ostreamIT_T0_ES6_PKS3_l(ptr noundef nonnull align 8 dereferenceable(8) %0, ptr noundef nonnull %25, i64 noundef %35)
  br label %_ZStlsISt11char_traitsIcEERSt13basic_ostreamIcT_ES5_PKc.exit14

_ZStlsISt11char_traitsIcEERSt13basic_ostreamIcT_ES5_PKc.exit14: ; preds = %26, %34
  %37 = tail call noundef nonnull align 8 dereferenceable(8) ptr @_ZSt16__ostream_insertIcSt11char_traitsIcEERSt13basic_ostreamIT_T0_ES6_PKS3_l(ptr noundef nonnull align 8 dereferenceable(8) %0, ptr noundef nonnull @.str.7, i64 noundef 6)
  %38 = load ptr, ptr %22, align 8, !tbaa !34
  %39 = getelementptr inbounds nuw i8, ptr %38, i64 40
  %40 = load ptr, ptr %39, align 8, !tbaa !45
  %.not.i15 = icmp eq ptr %40, null
  br i1 %.not.i15, label %41, label %49

41:                                               ; preds = %_ZStlsISt11char_traitsIcEERSt13basic_ostreamIcT_ES5_PKc.exit14
  %42 = load ptr, ptr %0, align 8, !tbaa !12
  %43 = getelementptr i8, ptr %42, i64 -24
  %44 = load i64, ptr %43, align 8
  %45 = getelementptr inbounds i8, ptr %0, i64 %44
  %46 = getelementptr inbounds nuw i8, ptr %45, i64 32
  %47 = load i32, ptr %46, align 8, !tbaa !74
  %48 = or i32 %47, 1
  tail call void @_ZNSt9basic_iosIcSt11char_traitsIcEE5clearESt12_Ios_Iostate(ptr noundef nonnull align 8 dereferenceable(264) %45, i32 noundef %48)
  br label %_ZStlsISt11char_traitsIcEERSt13basic_ostreamIcT_ES5_PKc.exit16

49:                                               ; preds = %_ZStlsISt11char_traitsIcEERSt13basic_ostreamIcT_ES5_PKc.exit14
  %50 = tail call noundef i64 @strlen(ptr noundef nonnull dereferenceable(1) %40) #23
  %51 = tail call noundef nonnull align 8 dereferenceable(8) ptr @_ZSt16__ostream_insertIcSt11char_traitsIcEERSt13basic_ostreamIT_T0_ES6_PKS3_l(ptr noundef nonnull align 8 dereferenceable(8) %0, ptr noundef nonnull %40, i64 noundef %50)
  br label %_ZStlsISt11char_traitsIcEERSt13basic_ostreamIcT_ES5_PKc.exit16

_ZStlsISt11char_traitsIcEERSt13basic_ostreamIcT_ES5_PKc.exit16: ; preds = %41, %49
  %52 = tail call noundef nonnull align 8 dereferenceable(8) ptr @_ZSt16__ostream_insertIcSt11char_traitsIcEERSt13basic_ostreamIT_T0_ES6_PKS3_l(ptr noundef nonnull align 8 dereferenceable(8) %0, ptr noundef nonnull @.str.8, i64 noundef 8)
  %53 = load ptr, ptr %22, align 8, !tbaa !34
  %54 = getelementptr inbounds nuw i8, ptr %53, i64 72
  %55 = load ptr, ptr %54, align 8, !tbaa !45
  %.not.i17 = icmp eq ptr %55, null
  br i1 %.not.i17, label %56, label %64

56:                                               ; preds = %_ZStlsISt11char_traitsIcEERSt13basic_ostreamIcT_ES5_PKc.exit16
  %57 = load ptr, ptr %0, align 8, !tbaa !12
  %58 = getelementptr i8, ptr %57, i64 -24
  %59 = load i64, ptr %58, align 8
  %60 = getelementptr inbounds i8, ptr %0, i64 %59
  %61 = getelementptr inbounds nuw i8, ptr %60, i64 32
  %62 = load i32, ptr %61, align 8, !tbaa !74
  %63 = or i32 %62, 1
  tail call void @_ZNSt9basic_iosIcSt11char_traitsIcEE5clearESt12_Ios_Iostate(ptr noundef nonnull align 8 dereferenceable(264) %60, i32 noundef %63)
  br label %_ZStlsISt11char_traitsIcEERSt13basic_ostreamIcT_ES5_PKc.exit18

64:                                               ; preds = %_ZStlsISt11char_traitsIcEERSt13basic_ostreamIcT_ES5_PKc.exit16
  %65 = tail call noundef i64 @strlen(ptr noundef nonnull dereferenceable(1) %55) #23
  %66 = tail call noundef nonnull align 8 dereferenceable(8) ptr @_ZSt16__ostream_insertIcSt11char_traitsIcEERSt13basic_ostreamIT_T0_ES6_PKS3_l(ptr noundef nonnull align 8 dereferenceable(8) %0, ptr noundef nonnull %55, i64 noundef %65)
  br label %_ZStlsISt11char_traitsIcEERSt13basic_ostreamIcT_ES5_PKc.exit18

_ZStlsISt11char_traitsIcEERSt13basic_ostreamIcT_ES5_PKc.exit18: ; preds = %56, %64
  %67 = load ptr, ptr %22, align 8, !tbaa !34
  %68 = getelementptr inbounds nuw i8, ptr %67, i64 4
  %69 = load i8, ptr %68, align 4, !tbaa !30, !range !38, !noundef !39
  %70 = trunc nuw i8 %69 to i1
  br i1 %70, label %71, label %73

71:                                               ; preds = %_ZStlsISt11char_traitsIcEERSt13basic_ostreamIcT_ES5_PKc.exit18
  %72 = tail call noundef nonnull align 8 dereferenceable(8) ptr @_ZSt16__ostream_insertIcSt11char_traitsIcEERSt13basic_ostreamIT_T0_ES6_PKS3_l(ptr noundef nonnull align 8 dereferenceable(8) %0, ptr noundef nonnull @.str.9, i64 noundef 18)
  br label %73

73:                                               ; preds = %71, %_ZStlsISt11char_traitsIcEERSt13basic_ostreamIcT_ES5_PKc.exit18
  %74 = tail call noundef nonnull align 8 dereferenceable(8) ptr @_ZSt16__ostream_insertIcSt11char_traitsIcEERSt13basic_ostreamIT_T0_ES6_PKS3_l(ptr noundef nonnull align 8 dereferenceable(8) %0, ptr noundef nonnull @.str.10, i64 noundef 1)
  ret ptr %0
}